target datalayout = "e-m:e-p270:32:32-p271:32:32-p272:64:64-i64:64-i128:128-f80:128-n8:16:32:64-S128"
target triple = "x86_64-pc-linux-gnu"

%class.SCTPAllAssocsDialog = type <{ %class.QDialog, ptr, ptr, i16, [6 x i8] }>
%class.QDialog = type { %class.QWidget }
%class.QWidget = type { %class.QObject, %class.QPaintDevice.base, ptr }
%class.QObject = type { ptr, %class.QScopedPointer }
%class.QScopedPointer = type { ptr }
%class.QPaintDevice.base = type <{ ptr, i16 }>
%"class.QMetaObject::Connection" = type { ptr }
%class.QObjectData = type { ptr, ptr, ptr, %class.QList.26, i32, i32, ptr, %class.QBindingStorage }
%class.QList.26 = type { %struct.QArrayDataPointer.29 }
%struct.QArrayDataPointer.29 = type { ptr, ptr, i64 }
%class.QBindingStorage = type { ptr, ptr }

@.str.3 = private unnamed_addr constant [29 x i8] c"2filterPackets(QString,bool)\00", align 1
@.str.4 = private unnamed_addr constant [29 x i8] c"1filterPackets(QString,bool)\00", align 1

; Function Attrs: mustprogress nounwind uwtable
define linkonce_odr noundef ptr @_ZNK14QScopedPointerI11QObjectData21QScopedPointerDeleterIS0_EEptEv(ptr noundef nonnull align 8 dereferenceable(8) %0) #1 comdat align 2 {
  %2 = alloca ptr, align 8
  store ptr %0, ptr %2, align 8
  %3 = load ptr, ptr %2, align 8
  %4 = getelementptr inbounds %class.QScopedPointer, ptr %3, i32 0, i32 0
  %5 = load ptr, ptr %4, align 8
  ret ptr %5
}

; Function Attrs: mustprogress nounwind uwtable
define linkonce_odr noundef ptr @_ZNK7QObject6parentEv(ptr noundef nonnull align 8 dereferenceable(16) %0) #1 comdat align 2 {
  %2 = alloca ptr, align 8
  store ptr %0, ptr %2, align 8
  %3 = load ptr, ptr %2, align 8
  %4 = getelementptr inbounds %class.QObject, ptr %3, i32 0, i32 1
  %5 = call noundef ptr @_ZNK14QScopedPointerI11QObjectData21QScopedPointerDeleterIS0_EEptEv(ptr noundef nonnull align 8 dereferenceable(8) %4) #11
  %6 = getelementptr inbounds %class.QObjectData, ptr %5, i32 0, i32 2
  %7 = load ptr, ptr %6, align 8
  ret ptr %7
}

; Function Attrs: mustprogress uwtable
define void @_ZN19SCTPAllAssocsDialog24on_analyseButton_clickedEv(ptr noundef nonnull align 8 dereferenceable(58) %0) #0 align 2 personality ptr @__gxx_personality_v0 {
  %2 = alloca ptr, align 8
  %3 = alloca ptr, align 8
  %4 = alloca ptr, align 8
  %5 = alloca ptr, align 8
  %6 = alloca i32, align 4
  %7 = alloca %"class.QMetaObject::Connection", align 8
  store ptr %0, ptr %2, align 8
  %8 = load ptr, ptr %2, align 8
  %9 = getelementptr inbounds %class.SCTPAllAssocsDialog, ptr %8, i32 0, i32 3
  %10 = load i16, ptr %9, align 8
  %11 = call noundef ptr @_ZN22SCTPAssocAnalyseDialog9findAssocEP7QWidgett(ptr noundef %8, i16 noundef zeroext %10)
  store ptr %11, ptr %3, align 8
  %12 = load ptr, ptr %3, align 8
  %13 = icmp ne ptr %12, null
  br i1 %13, label %15, label %14

14:                                               ; preds = %1
  br label %38

15:                                               ; preds = %1
  %16 = call noalias noundef nonnull ptr @_Znwm(i64 noundef 64) #13
  %17 = load ptr, ptr %3, align 8
  %18 = getelementptr inbounds %class.SCTPAllAssocsDialog, ptr %8, i32 0, i32 2
  %19 = load ptr, ptr %18, align 8
  invoke void @_ZN22SCTPAssocAnalyseDialogC1EP7QWidgetPK16_sctp_assoc_infoP13_capture_file(ptr noundef nonnull align 8 dereferenceable(64) %16, ptr noundef %8, ptr noundef %17, ptr noundef %19)
          to label %20 unwind label %29

20:                                               ; preds = %15
  store ptr %16, ptr %4, align 8
  %21 = load ptr, ptr %4, align 8
  %22 = call noundef ptr @_ZNK7QObject6parentEv(ptr noundef nonnull align 8 dereferenceable(16) %8)
  call void @_ZN7QObject7connectEPKS_PKcS1_S3_N2Qt14ConnectionTypeE(ptr dead_on_unwind writable sret(%"class.QMetaObject::Connection") align 8 %7, ptr noundef %21, ptr noundef @.str.3, ptr noundef %22, ptr noundef @.str.4, i32 noundef 0)
  call void @_ZN11QMetaObject10ConnectionD1Ev(ptr noundef nonnull align 8 dereferenceable(8) %7) #11
  %23 = load ptr, ptr %4, align 8
  %24 = call noundef zeroext i1 @_ZNK7QWidget11isMinimizedEv(ptr noundef nonnull align 8 dereferenceable(40) %23)
  %25 = zext i1 %24 to i32
  %26 = icmp eq i32 %25, 1
  br i1 %26, label %27, label %33

27:                                               ; preds = %20
  %28 = load ptr, ptr %4, align 8
  call void @_ZN7QWidget10showNormalEv(ptr noundef nonnull align 8 dereferenceable(40) %28)
  br label %35

29:                                               ; preds = %15
  %30 = landingpad { ptr, i32 }
          cleanup
  %31 = extractvalue { ptr, i32 } %30, 0
  store ptr %31, ptr %5, align 8
  %32 = extractvalue { ptr, i32 } %30, 1
  store i32 %32, ptr %6, align 4
  call void @_ZdlPv(ptr noundef %16) #14
  br label %39

33:                                               ; preds = %20
  %34 = load ptr, ptr %4, align 8
  call void @_ZN7QWidget4showEv(ptr noundef nonnull align 8 dereferenceable(40) %34)
  br label %35

35:                                               ; preds = %33, %27
  %36 = load ptr, ptr %4, align 8
  call void @_ZN7QWidget5raiseEv(ptr noundef nonnull align 8 dereferenceable(40) %36)
  %37 = load ptr, ptr %4, align 8
  call void @_ZN7QWidget14activateWindowEv(ptr noundef nonnull align 8 dereferenceable(40) %37)
  br label %38

38:                                               ; preds = %35, %14
  ret void

39:                                               ; preds = %29
  %40 = load ptr, ptr %5, align 8
  %41 = load i32, ptr %6, align 4
  %42 = insertvalue { ptr, i32 } poison, ptr %40, 0
  %43 = insertvalue { ptr, i32 } %42, i32 %41, 1
  resume { ptr, i32 } %43
}