; Function Attrs: mustprogress uwtable
define void @_ZN19SCTPAllAssocsDialog24on_analyseButton_clickedEv(ptr noundef nonnull align 8 dereferenceable(58) %0) local_unnamed_addr #0 align 2 personality ptr @__gxx_personality_v0 {
  %2 = alloca %"class.QMetaObject::Connection", align 8
  %3 = getelementptr inbounds i8, ptr %0, i64 56
  %4 = load i16, ptr %3, align 8
  %5 = tail call noundef ptr @_ZN22SCTPAssocAnalyseDialog9findAssocEP7QWidgett(ptr noundef nonnull %0, i16 noundef zeroext %4)
  %.not = icmp eq ptr %5, null
  br i1 %.not, label %21, label %6

6:                                                ; preds = %1
  %7 = tail call noalias noundef nonnull dereferenceable(64) ptr @_Znwm(i64 noundef 64) #8
  %8 = getelementptr inbounds i8, ptr %0, i64 48
  %9 = load ptr, ptr %8, align 8
  invoke void @_ZN22SCTPAssocAnalyseDialogC1EP7QWidgetPK16_sctp_assoc_infoP13_capture_file(ptr noundef nonnull align 8 dereferenceable(64) %7, ptr noundef nonnull %0, ptr noundef nonnull %5, ptr noundef %9)
          to label %10 unwind label %17

10:                                               ; preds = %6
  %11 = getelementptr inbounds i8, ptr %0, i64 8
  %12 = load ptr, ptr %11, align 8
  %13 = getelementptr inbounds i8, ptr %12, i64 16
  %14 = load ptr, ptr %13, align 8
  call void @_ZN7QObject7connectEPKS_PKcS1_S3_N2Qt14ConnectionTypeE(ptr dead_on_unwind nonnull writable sret(%"class.QMetaObject::Connection") align 8 %2, ptr noundef nonnull %7, ptr noundef nonnull @.str.3, ptr noundef %14, ptr noundef nonnull @.str.4, i32 noundef 0)
  call void @_ZN11QMetaObject10ConnectionD1Ev(ptr noundef nonnull align 8 dereferenceable(8) %2) #9
  %15 = call noundef zeroext i1 @_ZNK7QWidget11isMinimizedEv(ptr noundef nonnull align 8 dereferenceable(40) %7)
  br i1 %15, label %16, label %19

16:                                               ; preds = %10
  call void @_ZN7QWidget10showNormalEv(ptr noundef nonnull align 8 dereferenceable(40) %7)
  br label %20

17:                                               ; preds = %6
  %18 = landingpad { ptr, i32 }
          cleanup
  tail call void @_ZdlPv(ptr noundef nonnull %7) #10
  resume { ptr, i32 } %18

19:                                               ; preds = %10
  call void @_ZN7QWidget4showEv(ptr noundef nonnull align 8 dereferenceable(40) %7)
  br label %20

20:                                               ; preds = %19, %16
  call void @_ZN7QWidget5raiseEv(ptr noundef nonnull align 8 dereferenceable(40) %7)
  call void @_ZN7QWidget14activateWindowEv(ptr noundef nonnull align 8 dereferenceable(40) %7)
  br label %21

21:                                               ; preds = %1, %20
  ret void
}